target datalayout = "e-m:e-p270:32:32-p271:32:32-p272:64:64-i64:64-i128:128-f80:128-n8:16:32:64-S128"
target triple = "x86_64-pc-linux-gnu"

@.str.16 = private unnamed_addr constant [7 x i8] c"sha256\00", align 1
@.str.207 = private unnamed_addr constant [3 x i8] c"rb\00", align 1
@.str.262 = private unnamed_addr constant [32 x i8] c"sha256file: Can't open file %s\0A\00", align 1
@.str.263 = private unnamed_addr constant [5 x i8] c"%02x\00", align 1

; Function Attrs: nounwind uwtable
define internal ptr @sha256file(ptr noundef %0, ptr noundef %1) #0 {
  %3 = alloca ptr, align 8
  %4 = alloca ptr, align 8
  %5 = alloca ptr, align 8
  %6 = alloca ptr, align 8
  %7 = alloca i32, align 4
  %8 = alloca i32, align 4
  %9 = alloca [32 x i8], align 16
  %10 = alloca [8192 x i8], align 16
  %11 = alloca ptr, align 8
  %12 = alloca ptr, align 8
  store ptr %0, ptr %4, align 8
  store ptr %1, ptr %5, align 8
  %13 = call ptr @cl_hash_init(ptr noundef @.str.16)
  store ptr %13, ptr %12, align 8
  %14 = load ptr, ptr %12, align 8
  %15 = icmp ne ptr %14, null
  br i1 %15, label %17, label %16

16:                                               ; preds = %2
  store ptr null, ptr %3, align 8
  br label %83

17:                                               ; preds = %2
  %18 = load ptr, ptr %4, align 8
  %19 = call noalias ptr @fopen(ptr noundef %18, ptr noundef @.str.207)
  store ptr %19, ptr %6, align 8
  %20 = icmp ne ptr %19, null
  br i1 %20, label %24, label %21

21:                                               ; preds = %17
  %22 = load ptr, ptr %4, align 8
  call void (i32, ptr, ...) @mprintf(i32 noundef 5, ptr noundef @.str.262, ptr noundef %22)
  %23 = load ptr, ptr %12, align 8
  call void @cl_hash_destroy(ptr noundef %23)
  store ptr null, ptr %3, align 8
  br label %83

24:                                               ; preds = %17
  %25 = load ptr, ptr %5, align 8
  %26 = icmp ne ptr %25, null
  br i1 %26, label %27, label %29

27:                                               ; preds = %24
  %28 = load ptr, ptr %5, align 8
  store i32 0, ptr %28, align 4
  br label %29

29:                                               ; preds = %27, %24
  br label %30

30:                                               ; preds = %49, %29
  %31 = getelementptr inbounds [8192 x i8], ptr %10, i64 0, i64 0
  %32 = load ptr, ptr %6, align 8
  %33 = call i64 @fread(ptr noundef %31, i64 noundef 1, i64 noundef 8192, ptr noundef %32)
  %34 = trunc i64 %33 to i32
  store i32 %34, ptr %8, align 4
  %35 = icmp ne i32 %34, 0
  br i1 %35, label %36, label %50

36:                                               ; preds = %30
  %37 = load ptr, ptr %12, align 8
  %38 = getelementptr inbounds [8192 x i8], ptr %10, i64 0, i64 0
  %39 = load i32, ptr %8, align 4
  %40 = zext i32 %39 to i64
  %41 = call i32 @cl_update_hash(ptr noundef %37, ptr noundef %38, i64 noundef %40)
  %42 = load ptr, ptr %5, align 8
  %43 = icmp ne ptr %42, null
  br i1 %43, label %44, label %49

44:                                               ; preds = %36
  %45 = load i32, ptr %8, align 4
  %46 = load ptr, ptr %5, align 8
  %47 = load i32, ptr %46, align 4
  %48 = add i32 %47, %45
  store i32 %48, ptr %46, align 4
  br label %49

49:                                               ; preds = %44, %36
  br label %30

50:                                               ; preds = %30
  %51 = load ptr, ptr %12, align 8
  %52 = getelementptr inbounds [32 x i8], ptr %9, i64 0, i64 0
  %53 = call i32 @cl_finish_hash(ptr noundef %51, ptr noundef %52)
  %54 = call noalias ptr @malloc(i64 noundef 65) #13
  store ptr %54, ptr %11, align 8
  %55 = load ptr, ptr %11, align 8
  %56 = icmp ne ptr %55, null
  br i1 %56, label %60, label %57

57:                                               ; preds = %50
  %58 = load ptr, ptr %6, align 8
  %59 = call i32 @fclose(ptr noundef %58)
  store ptr null, ptr %3, align 8
  br label %83

60:                                               ; preds = %50
  store i32 0, ptr %7, align 4
  br label %61

61:                                               ; preds = %76, %60
  %62 = load i32, ptr %7, align 4
  %63 = icmp ult i32 %62, 32
  br i1 %63, label %64, label %79

64:                                               ; preds = %61
  %65 = load ptr, ptr %11, align 8
  %66 = load i32, ptr %7, align 4
  %67 = mul i32 %66, 2
  %68 = zext i32 %67 to i64
  %69 = getelementptr inbounds i8, ptr %65, i64 %68
  %70 = load i32, ptr %7, align 4
  %71 = zext i32 %70 to i64
  %72 = getelementptr inbounds [32 x i8], ptr %9, i64 0, i64 %71
  %73 = load i8, ptr %72, align 1
  %74 = zext i8 %73 to i32
  %75 = call i32 (ptr, ptr, ...) @sprintf(ptr noundef %69, ptr noundef @.str.263, i32 noundef %74) #11
  br label %76

76:                                               ; preds = %64
  %77 = load i32, ptr %7, align 4
  %78 = add i32 %77, 1
  store i32 %78, ptr %7, align 4
  br label %61

79:                                               ; preds = %61
  %80 = load ptr, ptr %6, align 8
  %81 = call i32 @fclose(ptr noundef %80)
  %82 = load ptr, ptr %11, align 8
  store ptr %82, ptr %3, align 8
  br label %83

83:                                               ; preds = %79, %57, %21, %16
  %84 = load ptr, ptr %3, align 8
  ret ptr %84
}