; Function Attrs: nounwind uwtable
define internal fastcc noalias noundef ptr @sha256file(ptr noundef %0, ptr noundef %1) unnamed_addr #0 {
  %3 = alloca [32 x i8], align 16
  %4 = alloca [8192 x i8], align 16
  %5 = tail call ptr @cl_hash_init(ptr noundef nonnull @.str.16) #25
  %.not = icmp eq ptr %5, null
  br i1 %.not, label %40, label %6

6:                                                ; preds = %2
  %7 = tail call noalias ptr @fopen(ptr noundef %0, ptr noundef nonnull @.str.207)
  %.not28 = icmp eq ptr %7, null
  br i1 %.not28, label %8, label %9

8:                                                ; preds = %6
  tail call void (i32, ptr, ...) @mprintf(i32 noundef 5, ptr noundef nonnull @.str.262, ptr noundef %0) #25
  tail call void @cl_hash_destroy(ptr noundef nonnull %5) #25
  br label %40

9:                                                ; preds = %6
  %.not29 = icmp eq ptr %1, null
  br i1 %.not29, label %10, label %.thread

10:                                               ; preds = %9
  %11 = call i64 @fread(ptr noundef nonnull %4, i64 noundef 1, i64 noundef 8192, ptr noundef nonnull %7)
  %12 = and i64 %11, 4294967295
  %.not3032 = icmp eq i64 %12, 0
  br i1 %.not3032, label %._crit_edge, label %.lr.ph.split.us

.thread:                                          ; preds = %9
  store i32 0, ptr %1, align 4
  %13 = call i64 @fread(ptr noundef nonnull %4, i64 noundef 1, i64 noundef 8192, ptr noundef nonnull %7)
  %14 = trunc i64 %13 to i32
  %.not303236 = icmp eq i32 %14, 0
  br i1 %.not303236, label %._crit_edge, label %.lr.ph.split

.lr.ph.split.us:                                  ; preds = %10, %.lr.ph.split.us
  %15 = phi i64 [ %18, %.lr.ph.split.us ], [ %11, %10 ]
  %16 = and i64 %15, 4294967295
  %17 = call i32 @cl_update_hash(ptr noundef nonnull %5, ptr noundef nonnull %4, i64 noundef %16) #25
  %18 = call i64 @fread(ptr noundef nonnull %4, i64 noundef 1, i64 noundef 8192, ptr noundef nonnull %7)
  %19 = and i64 %18, 4294967295
  %.not30.us = icmp eq i64 %19, 0
  br i1 %.not30.us, label %._crit_edge, label %.lr.ph.split.us

.lr.ph.split:                                     ; preds = %.thread, %.lr.ph.split
  %20 = phi i32 [ %27, %.lr.ph.split ], [ %14, %.thread ]
  %21 = phi i64 [ %26, %.lr.ph.split ], [ %13, %.thread ]
  %22 = and i64 %21, 4294967295
  %23 = call i32 @cl_update_hash(ptr noundef nonnull %5, ptr noundef nonnull %4, i64 noundef %22) #25
  %24 = load i32, ptr %1, align 4
  %25 = add i32 %24, %20
  store i32 %25, ptr %1, align 4
  %26 = call i64 @fread(ptr noundef nonnull %4, i64 noundef 1, i64 noundef 8192, ptr noundef nonnull %7)
  %27 = trunc i64 %26 to i32
  %.not30 = icmp eq i32 %27, 0
  br i1 %.not30, label %._crit_edge, label %.lr.ph.split

._crit_edge:                                      ; preds = %.lr.ph.split, %.lr.ph.split.us, %.thread, %10
  %28 = call i32 @cl_finish_hash(ptr noundef nonnull %5, ptr noundef nonnull %3) #25
  %29 = call noalias dereferenceable_or_null(65) ptr @malloc(i64 noundef 65) #30
  %.not31 = icmp eq ptr %29, null
  br i1 %.not31, label %30, label %.preheader

30:                                               ; preds = %._crit_edge
  %31 = call i32 @fclose(ptr noundef nonnull %7)
  br label %40

.preheader:                                       ; preds = %._crit_edge, %.preheader
  %indvars.iv = phi i64 [ %indvars.iv.next, %.preheader ], [ 0, %._crit_edge ]
  %32 = shl nuw nsw i64 %indvars.iv, 1
  %33 = getelementptr inbounds i8, ptr %29, i64 %32
  %34 = getelementptr inbounds [32 x i8], ptr %3, i64 0, i64 %indvars.iv
  %35 = load i8, ptr %34, align 1
  %36 = zext i8 %35 to i32
  %37 = call i32 (ptr, ptr, ...) @sprintf(ptr noundef nonnull dereferenceable(1) %33, ptr noundef nonnull dereferenceable(1) @.str.263, i32 noundef %36) #25
  %indvars.iv.next = add nuw nsw i64 %indvars.iv, 1
  %exitcond.not = icmp eq i64 %indvars.iv.next, 32
  br i1 %exitcond.not, label %38, label %.preheader

38:                                               ; preds = %.preheader
  %39 = call i32 @fclose(ptr noundef nonnull %7)
  br label %40

40:                                               ; preds = %2, %38, %30, %8
  %.0 = phi ptr [ %29, %38 ], [ null, %30 ], [ null, %8 ], [ null, %2 ]
  ret ptr %.0
}